(dp1
S'hand_motor_joint'
p2
F1.180636
sS'head_pan_joint'
p3
F9.1710690699464692e-06
sS'wrist_roll_joint'
p4
F-0.00022827258624147362
sS'arm_lift_joint'
p5
F0.30000027516009092
sS'arm_flex_joint'
p6
F-0.029477502073635531
sS'wrist_flex_joint'
p7
F-1.5700003970493122
sS'head_tilt_joint'
p8
F-1.139065969435471e-06
sS'arm_roll_joint'
p9
F8.0380543021618678e-07
s.