(dp1
S'hand_motor_joint'
p2
F1.130409
sS'head_pan_joint'
p3
F-0.45028982893092984
sS'wrist_roll_joint'
p4
F0.018175727413758391
sS'arm_lift_joint'
p5
F0.13237128154846323
sS'arm_flex_joint'
p6
F-1.5669095020736357
sS'wrist_flex_joint'
p7
F-1.626674397049312
sS'head_tilt_joint'
p8
F-1.1676971390659694
sS'arm_roll_joint'
p9
F-1.5588761961945701
s.