(dp1
S'hand_motor_joint'
p2
F1.203681
sS'head_pan_joint'
p3
F-5.8289309299297543e-06
sS'wrist_roll_joint'
p4
F0.0013017274137583357
sS'arm_lift_joint'
p5
F0.0099994075072749791
sS'arm_flex_joint'
p6
F-0.028326502073635407
sS'wrist_flex_joint'
p7
F-1.8511443970493122
sS'head_tilt_joint'
p8
F-1.139065969435471e-06
sS'arm_roll_joint'
p9
F1.44363080380543
s.