(dp1
S'hand_motor_joint'
p2
F1.2261359999999999
sS'head_pan_joint'
p3
F9.1710690699464692e-06
sS'wrist_roll_joint'
p4
F0.0039857274137582444
sS'arm_lift_joint'
p5
F0.0065902485072418786
sS'arm_flex_joint'
p6
F-2.3783855020736357
sS'wrist_flex_joint'
p7
F0.56781760295068784
sS'head_tilt_joint'
p8
F-0.49999913906596949
sS'arm_roll_joint'
p9
F5.8038054300268982e-06
s.