(dp1
S'hand_motor_joint'
p2
F1.202499
sS'head_pan_joint'
p3
F-5.8289309299297543e-06
sS'wrist_roll_joint'
p4
F0.00053372741375845578
sS'arm_lift_joint'
p5
F0.01000025172727499
sS'arm_flex_joint'
p6
F5.2497926364303282e-05
sS'wrist_flex_joint'
p7
F-1.5700003970493122
sS'head_tilt_joint'
p8
F-1.139065969435471e-06
sS'arm_roll_joint'
p9
F-1.56999219619457
s.