(dp1
S'hand_motor_joint'
p2
F1.2267269999999999
sS'head_pan_joint'
p3
F9.1710690699464692e-06
sS'wrist_roll_joint'
p4
F0.00053372741375845578
sS'arm_lift_joint'
p5
F-1.2474428221255496e-06
sS'arm_flex_joint'
p6
F-1.8499295020736355
sS'wrist_flex_joint'
p7
F-1.2900103970493122
sS'head_tilt_joint'
p8
F-0.8800001390659693
sS'arm_roll_joint'
p9
F-1.4196194570104126e-05
s.