(dp1
S'hand_motor_joint'
p2
F1.2267269999999999
sS'head_pan_joint'
p3
F-3.6828930929821979e-05
sS'wrist_roll_joint'
p4
F0.00092072741375837097
sS'arm_lift_joint'
p5
F0.20000147261911991
sS'arm_flex_joint'
p6
F-1.8499295020736355
sS'wrist_flex_joint'
p7
F-1.2900103970493122
sS'head_tilt_joint'
p8
F-0.87999513906596949
sS'arm_roll_joint'
p9
F-1.4196194570104126e-05
s.